target datalayout = "e-m:e-p270:32:32-p271:32:32-p272:64:64-i64:64-i128:128-f80:128-n8:16:32:64-S128"
target triple = "x86_64-pc-linux-gnu"

@libctx = internal global ptr null, align 8
@.str.20 = private unnamed_addr constant [5 x i8] c"fips\00", align 1
@.str.24 = private unnamed_addr constant [34 x i8] c"../openssl/test/evp_libctx_test.c\00", align 1
@.str.62 = private unnamed_addr constant [4 x i8] c"DES\00", align 1

; Function Attrs: inlinehint nounwind uwtable
define internal ptr @ossl_check_OPENSSL_STRING_type(ptr noundef %0) #4 {
  %2 = alloca ptr, align 8
  store ptr %0, ptr %2, align 8, !tbaa !4
  %3 = load ptr, ptr %2, align 8, !tbaa !4
  ret ptr %3
}

; Function Attrs: inlinehint nounwind uwtable
define internal ptr @ossl_check_OPENSSL_STRING_sk_type(ptr noundef %0) #4 {
  %2 = alloca ptr, align 8
  store ptr %0, ptr %2, align 8, !tbaa !15
  %3 = load ptr, ptr %2, align 8, !tbaa !15
  ret ptr %3
}

; Function Attrs: nounwind uwtable
define internal void @collect_cipher_names(ptr noundef %0, ptr noundef %1) #0 {
  %3 = alloca ptr, align 8
  %4 = alloca ptr, align 8
  %5 = alloca ptr, align 8
  %6 = alloca ptr, align 8
  %7 = alloca ptr, align 8
  %8 = alloca i32, align 4
  store ptr %0, ptr %3, align 8, !tbaa !34
  store ptr %1, ptr %4, align 8, !tbaa !31
  call void @llvm.lifetime.start.p0(i64 8, ptr %5) #7
  %9 = load ptr, ptr %4, align 8, !tbaa !31
  store ptr %9, ptr %5, align 8, !tbaa !15
  call void @llvm.lifetime.start.p0(i64 8, ptr %6) #7
  %10 = load ptr, ptr %3, align 8, !tbaa !34
  %11 = call ptr @EVP_CIPHER_get0_name(ptr noundef %10)
  store ptr %11, ptr %6, align 8, !tbaa !4
  call void @llvm.lifetime.start.p0(i64 8, ptr %7) #7
  store ptr null, ptr %7, align 8, !tbaa !4
  %12 = load ptr, ptr @libctx, align 8, !tbaa !13
  %13 = call i32 @OSSL_PROVIDER_available(ptr noundef %12, ptr noundef @.str.20)
  %14 = icmp ne i32 %13, 0
  br i1 %14, label %15, label %20

15:                                               ; preds = %2
  %16 = load ptr, ptr %6, align 8, !tbaa !4
  %17 = call i32 @strncmp(ptr noundef %16, ptr noundef @.str.62, i64 noundef 3) #8
  %18 = icmp eq i32 %17, 0
  br i1 %18, label %19, label %20

19:                                               ; preds = %15
  store i32 1, ptr %8, align 4
  br label %34

20:                                               ; preds = %15, %2
  %21 = load ptr, ptr %6, align 8, !tbaa !4
  %22 = call noalias ptr @CRYPTO_strdup(ptr noundef %21, ptr noundef @.str.24, i32 noundef 539)
  store ptr %22, ptr %7, align 8, !tbaa !4
  %23 = icmp ne ptr %22, null
  br i1 %23, label %24, label %33

24:                                               ; preds = %20
  %25 = load ptr, ptr %5, align 8, !tbaa !15
  %26 = call ptr @ossl_check_OPENSSL_STRING_sk_type(ptr noundef %25)
  %27 = load ptr, ptr %7, align 8, !tbaa !4
  %28 = call ptr @ossl_check_OPENSSL_STRING_type(ptr noundef %27)
  %29 = call i32 @OPENSSL_sk_push(ptr noundef %26, ptr noundef %28)
  %30 = icmp ne i32 %29, 0
  br i1 %30, label %33, label %31

31:                                               ; preds = %24
  %32 = load ptr, ptr %7, align 8, !tbaa !4
  call void @CRYPTO_free(ptr noundef %32, ptr noundef @.str.24, i32 noundef 541)
  br label %33

33:                                               ; preds = %31, %24, %20
  store i32 0, ptr %8, align 4
  br label %34

34:                                               ; preds = %33, %19
  call void @llvm.lifetime.end.p0(i64 8, ptr %7) #7
  call void @llvm.lifetime.end.p0(i64 8, ptr %6) #7
  call void @llvm.lifetime.end.p0(i64 8, ptr %5) #7
  %35 = load i32, ptr %8, align 4
  switch i32 %35, label %37 [
    i32 0, label %36
    i32 1, label %36
  ]

36:                                               ; preds = %34, %34
  ret void

37:                                               ; preds = %34
  unreachable
}