; Function Attrs: nounwind uwtable
define internal void @collect_cipher_names(ptr noundef %0, ptr noundef %1) #1 {
  %3 = tail call ptr @EVP_CIPHER_get0_name(ptr noundef %0) #7
  %4 = load ptr, ptr @libctx, align 8, !tbaa !6
  %5 = tail call i32 @OSSL_PROVIDER_available(ptr noundef %4, ptr noundef nonnull @.str.20) #7
  %.not = icmp eq i32 %5, 0
  br i1 %.not, label %.tail.thread, label %sub_0

sub_0:                                            ; preds = %2
  %6 = load i8, ptr %3, align 1
  %.not9 = icmp eq i8 %6, 68
  br i1 %.not9, label %sub_1, label %.tail.thread

sub_1:                                            ; preds = %sub_0
  %7 = getelementptr inbounds nuw i8, ptr %3, i64 1
  %8 = load i8, ptr %7, align 1
  %.not10 = icmp eq i8 %8, 69
  br i1 %.not10, label %.tail, label %.tail.thread

.tail:                                            ; preds = %sub_1
  %9 = getelementptr inbounds nuw i8, ptr %3, i64 2
  %10 = load i8, ptr %9, align 1
  %11 = icmp eq i8 %10, 83
  br i1 %11, label %16, label %.tail.thread

.tail.thread:                                     ; preds = %sub_1, %sub_0, %.tail, %2
  %12 = tail call noalias ptr @CRYPTO_strdup(ptr noundef %3, ptr noundef nonnull @.str.24, i32 noundef 539) #7
  %.not7 = icmp eq ptr %12, null
  br i1 %.not7, label %16, label %13

13:                                               ; preds = %.tail.thread
  %14 = tail call i32 @OPENSSL_sk_push(ptr noundef %1, ptr noundef nonnull %12) #7
  %.not8 = icmp eq i32 %14, 0
  br i1 %.not8, label %15, label %16

15:                                               ; preds = %13
  tail call void @CRYPTO_free(ptr noundef nonnull %12, ptr noundef nonnull @.str.24, i32 noundef 541) #7
  br label %16

16:                                               ; preds = %.tail.thread, %13, %15, %.tail
  ret void
}